; Function Attrs: nounwind uwtable
define i32 @wolfSSL_CTX_use_certificate_buffer(ptr noundef %0, ptr noundef %1, i64 noundef %2, i32 noundef %3) local_unnamed_addr #0 {
  %.not = icmp eq ptr %0, null
  br i1 %.not, label %.split, label %.split7

.split:                                           ; preds = %4
  %5 = tail call i32 @ProcessBuffer(ptr noundef null, ptr noundef %1, i64 noundef %2, i32 noundef %3, i32 noundef 0, ptr noundef null, ptr noundef null, i32 noundef 0, i32 noundef 1)
  br label %11

.split7:                                          ; preds = %4
  %6 = getelementptr inbounds nuw i8, ptr %0, i64 169
  %7 = load i16, ptr %6, align 1
  %8 = and i16 %7, 2
  %.not8 = icmp eq i16 %8, 0
  %9 = zext i1 %.not8 to i32
  %10 = tail call i32 @ProcessBuffer(ptr noundef nonnull %0, ptr noundef %1, i64 noundef %2, i32 noundef %3, i32 noundef 0, ptr noundef null, ptr noundef null, i32 noundef 0, i32 noundef %9)
  br label %11

11:                                               ; preds = %.split, %.split7
  %phi.call = phi i32 [ %5, %.split ], [ %10, %.split7 ]
  ret i32 %phi.call
}